target datalayout = "e-m:e-p270:32:32-p271:32:32-p272:64:64-i64:64-i128:128-f80:128-n8:16:32:64-S128"
target triple = "x86_64-pc-linux-gnu"

%struct.Font = type { i32, i32, i32, %struct.Texture, ptr, ptr }
%struct.Texture = type { i32, i32, i32, i32, i32 }
%struct.Image = type { ptr, i32, i32, i32, i32 }
%struct.GlyphInfo = type { i32, i32, i32, i32, %struct.Image }

@defaultFont = internal global %struct.Font zeroinitializer, align 8
@isGpuReady = external global i8, align 1

; Function Attrs: nounwind uwtable
define hidden void @UnloadFontDefault() #0 {
  %1 = alloca i32, align 4
  %2 = alloca %struct.Texture, align 8
  call void @llvm.lifetime.start.p0(i64 4, ptr %1) #13
  store i32 0, ptr %1, align 4
  br label %3

3:                                                ; preds = %14, %0
  %4 = load i32, ptr %1, align 4
  %5 = load i32, ptr getelementptr inbounds nuw (%struct.Font, ptr @defaultFont, i32 0, i32 1), align 4
  %6 = icmp slt i32 %4, %5
  br i1 %6, label %8, label %7

7:                                                ; preds = %3
  call void @llvm.lifetime.end.p0(i64 4, ptr %1) #13
  br label %17

8:                                                ; preds = %3
  %9 = load ptr, ptr getelementptr inbounds nuw (%struct.Font, ptr @defaultFont, i32 0, i32 5), align 8
  %10 = load i32, ptr %1, align 4
  %11 = sext i32 %10 to i64
  %12 = getelementptr inbounds %struct.GlyphInfo, ptr %9, i64 %11
  %13 = getelementptr inbounds nuw %struct.GlyphInfo, ptr %12, i32 0, i32 4
  call void @UnloadImage(ptr noundef byval(%struct.Image) align 8 %13)
  br label %14

14:                                               ; preds = %8
  %15 = load i32, ptr %1, align 4
  %16 = add nsw i32 %15, 1
  store i32 %16, ptr %1, align 4
  br label %3

17:                                               ; preds = %7
  %18 = load i8, ptr @isGpuReady, align 1, !range !3, !noundef !4
  %19 = trunc i8 %18 to i1
  br i1 %19, label %20, label %21

20:                                               ; preds = %17
  call void @llvm.lifetime.start.p0(i64 20, ptr %2) #13
  call void @llvm.memcpy.p0.p0.i64(ptr align 8 %2, ptr align 4 getelementptr inbounds nuw (%struct.Font, ptr @defaultFont, i32 0, i32 3), i64 20, i1 false)
  call void @UnloadTexture(ptr noundef byval(%struct.Texture) align 8 %2)
  call void @llvm.lifetime.end.p0(i64 20, ptr %2) #13
  br label %21

21:                                               ; preds = %20, %17
  %22 = load ptr, ptr getelementptr inbounds nuw (%struct.Font, ptr @defaultFont, i32 0, i32 5), align 8
  call void @free(ptr noundef %22) #13
  %23 = load ptr, ptr getelementptr inbounds nuw (%struct.Font, ptr @defaultFont, i32 0, i32 4), align 8
  call void @free(ptr noundef %23) #13
  ret void
}