; Function Attrs: nounwind uwtable
define hidden void @UnloadFontDefault() local_unnamed_addr #10 {
  %1 = alloca %struct.Texture, align 8
  %2 = load i32, ptr getelementptr inbounds nuw (i8, ptr @defaultFont, i64 4), align 4
  %3 = icmp sgt i32 %2, 0
  br i1 %3, label %.lr.ph, label %._crit_edge

._crit_edge:                                      ; preds = %.lr.ph, %0
  %4 = load i8, ptr @isGpuReady, align 1, !range !3, !noundef !4
  %5 = trunc nuw i8 %4 to i1
  br i1 %5, label %11, label %12

.lr.ph:                                           ; preds = %0, %.lr.ph
  %indvars.iv = phi i64 [ %indvars.iv.next, %.lr.ph ], [ 0, %0 ]
  %6 = load ptr, ptr getelementptr inbounds nuw (i8, ptr @defaultFont, i64 40), align 8
  %7 = getelementptr inbounds nuw %struct.GlyphInfo, ptr %6, i64 %indvars.iv, i32 4
  tail call void @UnloadImage(ptr noundef nonnull byval(%struct.Image) align 8 %7) #41
  %indvars.iv.next = add nuw nsw i64 %indvars.iv, 1
  %8 = load i32, ptr getelementptr inbounds nuw (i8, ptr @defaultFont, i64 4), align 4
  %9 = sext i32 %8 to i64
  %10 = icmp slt i64 %indvars.iv.next, %9
  br i1 %10, label %.lr.ph, label %._crit_edge

11:                                               ; preds = %._crit_edge
  call void @llvm.lifetime.start.p0(i64 20, ptr nonnull %1) #41
  call void @llvm.memcpy.p0.p0.i64(ptr noundef nonnull align 8 dereferenceable(20) %1, ptr noundef nonnull align 4 dereferenceable(20) getelementptr inbounds nuw (i8, ptr @defaultFont, i64 12), i64 20, i1 false)
  tail call void @UnloadTexture(ptr noundef nonnull byval(%struct.Texture) align 8 %1) #41
  call void @llvm.lifetime.end.p0(i64 20, ptr nonnull %1) #41
  br label %12

12:                                               ; preds = %11, %._crit_edge
  %13 = load ptr, ptr getelementptr inbounds nuw (i8, ptr @defaultFont, i64 40), align 8
  tail call void @free(ptr noundef %13) #41
  %14 = load ptr, ptr getelementptr inbounds nuw (i8, ptr @defaultFont, i64 32), align 8
  tail call void @free(ptr noundef %14) #41
  ret void
}